target datalayout = "e-m:e-p270:32:32-p271:32:32-p272:64:64-i64:64-i128:128-f80:128-n8:16:32:64-S128"
target triple = "x86_64-pc-linux-gnu"

%struct.PaAlsaHostApiRepresentation = type { %struct.PaUtilHostApiRepresentation, %struct.PaUtilStreamInterface, %struct.PaUtilStreamInterface, ptr, i32, i32 }
%struct.PaUtilHostApiRepresentation = type { %struct.PaUtilPrivatePaFrontHostApiInfo, %struct.PaHostApiInfo, ptr, ptr, ptr, ptr }
%struct.PaUtilPrivatePaFrontHostApiInfo = type { i64 }
%struct.PaHostApiInfo = type { i32, i32, ptr, i32, i32, i32 }
%struct.PaUtilStreamInterface = type { ptr, ptr, ptr, ptr, ptr, ptr, ptr, ptr, ptr, ptr, ptr, ptr }

@alsa_snd_config_update_free_global = internal global ptr null, align 8

; Function Attrs: nounwind uwtable
define internal void @PaAlsa_CloseLibrary() #0 {
  ret void
}

; Function Attrs: nounwind uwtable
define internal void @Terminate(ptr noundef %0) #0 {
  %2 = alloca ptr, align 8
  %3 = alloca ptr, align 8
  store ptr %0, ptr %2, align 8, !tbaa !24
  call void @llvm.lifetime.start.p0(i64 8, ptr %3) #17
  %4 = load ptr, ptr %2, align 8, !tbaa !24
  store ptr %4, ptr %3, align 8, !tbaa !12
  %5 = load ptr, ptr %3, align 8, !tbaa !12
  %6 = getelementptr inbounds nuw %struct.PaAlsaHostApiRepresentation, ptr %5, i32 0, i32 3
  %7 = load ptr, ptr %6, align 8, !tbaa !14
  %8 = icmp ne ptr %7, null
  br i1 %8, label %9, label %16

9:                                                ; preds = %1
  %10 = load ptr, ptr %3, align 8, !tbaa !12
  %11 = getelementptr inbounds nuw %struct.PaAlsaHostApiRepresentation, ptr %10, i32 0, i32 3
  %12 = load ptr, ptr %11, align 8, !tbaa !14
  call void @PaUtil_FreeAllAllocations(ptr noundef %12)
  %13 = load ptr, ptr %3, align 8, !tbaa !12
  %14 = getelementptr inbounds nuw %struct.PaAlsaHostApiRepresentation, ptr %13, i32 0, i32 3
  %15 = load ptr, ptr %14, align 8, !tbaa !14
  call void @PaUtil_DestroyAllocationGroup(ptr noundef %15)
  br label %16

16:                                               ; preds = %9, %1
  %17 = load ptr, ptr %3, align 8, !tbaa !12
  call void @PaUtil_FreeMemory(ptr noundef %17)
  %18 = load ptr, ptr @alsa_snd_config_update_free_global, align 8, !tbaa !32
  %19 = call i32 %18()
  call void @PaAlsa_CloseLibrary()
  call void @llvm.lifetime.end.p0(i64 8, ptr %3) #17
  ret void
}