; Function Attrs: nounwind uwtable
define internal void @Terminate(ptr noundef %0) #2 {
  %2 = getelementptr inbounds nuw i8, ptr %0, i64 264
  %3 = load ptr, ptr %2, align 8, !tbaa !10
  %.not = icmp eq ptr %3, null
  br i1 %.not, label %6, label %4

4:                                                ; preds = %1
  tail call void @PaUtil_FreeAllAllocations(ptr noundef nonnull %3) #25
  %5 = load ptr, ptr %2, align 8, !tbaa !10
  tail call void @PaUtil_DestroyAllocationGroup(ptr noundef %5) #25
  br label %6

6:                                                ; preds = %4, %1
  tail call void @PaUtil_FreeMemory(ptr noundef nonnull %0) #25
  %7 = tail call i32 @snd_config_update_free_global() #25, !callees !30
  ret void
}